target datalayout = "e-m:e-p270:32:32-p271:32:32-p272:64:64-i64:64-i128:128-f80:128-n8:16:32:64-S128"
target triple = "x86_64-pc-linux-gnu"

; Function Attrs: nounwind uwtable
define dso_local ptr @str_trim_start(ptr noundef %0) #0 {
  %2 = alloca ptr, align 8
  store ptr %0, ptr %2, align 8
  br label %3

3:                                                ; preds = %14, %1
  %4 = load ptr, ptr %2, align 8
  %5 = getelementptr inbounds i8, ptr %4, i64 0
  %6 = load i8, ptr %5, align 1
  %7 = sext i8 %6 to i32
  %8 = icmp ne i32 %7, 0
  br i1 %8, label %9, label %19

9:                                                ; preds = %3
  %10 = load ptr, ptr %2, align 8
  %11 = getelementptr inbounds i8, ptr %10, i64 0
  %12 = load i8, ptr %11, align 1
  %13 = sext i8 %12 to i32
  switch i32 %13, label %17 [
    i32 32, label %14
    i32 9, label %14
    i32 10, label %14
    i32 13, label %14
  ]

14:                                               ; preds = %9, %9, %9, %9
  %15 = load ptr, ptr %2, align 8
  %16 = getelementptr inbounds i8, ptr %15, i32 1
  store ptr %16, ptr %2, align 8
  br label %3, !llvm.loop !22

17:                                               ; preds = %9
  br label %18

18:                                               ; preds = %17
  br label %19

19:                                               ; preds = %18, %3
  %20 = load ptr, ptr %2, align 8
  ret ptr %20
}