; Function Attrs: nofree norecurse nosync nounwind memory(read, inaccessiblemem: none) uwtable
define dso_local noundef ptr @str_trim_start(ptr noundef readonly %0) local_unnamed_addr #2 {
  br label %2

2:                                                ; preds = %4, %1
  %.0 = phi ptr [ %0, %1 ], [ %5, %4 ]
  %3 = load i8, ptr %.0, align 1
  switch i8 %3, label %6 [
    i8 13, label %4
    i8 32, label %4
    i8 9, label %4
    i8 10, label %4
  ]

4:                                                ; preds = %2, %2, %2, %2
  %5 = getelementptr inbounds i8, ptr %.0, i64 1
  br label %2, !llvm.loop !21

6:                                                ; preds = %2
  ret ptr %.0
}